target datalayout = "e-m:e-p270:32:32-p271:32:32-p272:64:64-i64:64-i128:128-f80:128-n8:16:32:64-S128"
target triple = "x86_64-pc-linux-gnu"

; Function Attrs: nounwind uwtable
define internal float @ppp_pvq_search_c(ptr noundef %0, ptr noundef %1, i32 noundef %2, i32 noundef %3) #3 {
  %5 = alloca ptr, align 8
  %6 = alloca ptr, align 8
  %7 = alloca i32, align 4
  %8 = alloca i32, align 4
  %9 = alloca i32, align 4
  %10 = alloca i32, align 4
  %11 = alloca float, align 4
  %12 = alloca float, align 4
  %13 = alloca i32, align 4
  %14 = alloca i32, align 4
  %15 = alloca float, align 4
  %16 = alloca float, align 4
  %17 = alloca i32, align 4
  %18 = alloca i32, align 4
  %19 = alloca float, align 4
  store ptr %0, ptr %5, align 8, !tbaa !21
  store ptr %1, ptr %6, align 8, !tbaa !25
  store i32 %2, ptr %7, align 4, !tbaa !10
  store i32 %3, ptr %8, align 4, !tbaa !10
  call void @llvm.lifetime.start.p0(i64 4, ptr %9) #10
  call void @llvm.lifetime.start.p0(i64 4, ptr %10) #10
  store i32 0, ptr %10, align 4, !tbaa !10
  call void @llvm.lifetime.start.p0(i64 4, ptr %11) #10
  store float 0.000000e+00, ptr %11, align 4, !tbaa !23
  call void @llvm.lifetime.start.p0(i64 4, ptr %12) #10
  store float 0.000000e+00, ptr %12, align 4, !tbaa !23
  store i32 0, ptr %9, align 4, !tbaa !10
  br label %20

20:                                               ; preds = %48, %4
  %21 = load i32, ptr %9, align 4, !tbaa !10
  %22 = load i32, ptr %8, align 4, !tbaa !10
  %23 = icmp slt i32 %21, %22
  br i1 %23, label %24, label %51

24:                                               ; preds = %20
  %25 = load ptr, ptr %5, align 8, !tbaa !21
  %26 = load i32, ptr %9, align 4, !tbaa !10
  %27 = sext i32 %26 to i64
  %28 = getelementptr inbounds float, ptr %25, i64 %27
  %29 = load float, ptr %28, align 4, !tbaa !23
  %30 = fcmp nsz oge float %29, 0.000000e+00
  br i1 %30, label %31, label %37

31:                                               ; preds = %24
  %32 = load ptr, ptr %5, align 8, !tbaa !21
  %33 = load i32, ptr %9, align 4, !tbaa !10
  %34 = sext i32 %33 to i64
  %35 = getelementptr inbounds float, ptr %32, i64 %34
  %36 = load float, ptr %35, align 4, !tbaa !23
  br label %44

37:                                               ; preds = %24
  %38 = load ptr, ptr %5, align 8, !tbaa !21
  %39 = load i32, ptr %9, align 4, !tbaa !10
  %40 = sext i32 %39 to i64
  %41 = getelementptr inbounds float, ptr %38, i64 %40
  %42 = load float, ptr %41, align 4, !tbaa !23
  %43 = fneg nsz float %42
  br label %44

44:                                               ; preds = %37, %31
  %45 = phi nsz float [ %36, %31 ], [ %43, %37 ]
  %46 = load float, ptr %11, align 4, !tbaa !23
  %47 = fadd nsz float %46, %45
  store float %47, ptr %11, align 4, !tbaa !23
  br label %48

48:                                               ; preds = %44
  %49 = load i32, ptr %9, align 4, !tbaa !10
  %50 = add nsw i32 %49, 1
  store i32 %50, ptr %9, align 4, !tbaa !10
  br label %20, !llvm.loop !27

51:                                               ; preds = %20
  %52 = load i32, ptr %7, align 4, !tbaa !10
  %53 = sitofp i32 %52 to float
  %54 = load float, ptr %11, align 4, !tbaa !23
  %55 = fadd nsz float %54, 0x3E80000000000000
  %56 = fdiv nsz float %53, %55
  store float %56, ptr %11, align 4, !tbaa !23
  store i32 0, ptr %9, align 4, !tbaa !10
  br label %57

57:                                               ; preds = %124, %51
  %58 = load i32, ptr %9, align 4, !tbaa !10
  %59 = load i32, ptr %8, align 4, !tbaa !10
  %60 = icmp slt i32 %58, %59
  br i1 %60, label %61, label %127

61:                                               ; preds = %57
  %62 = load float, ptr %11, align 4, !tbaa !23
  %63 = load ptr, ptr %5, align 8, !tbaa !21
  %64 = load i32, ptr %9, align 4, !tbaa !10
  %65 = sext i32 %64 to i64
  %66 = getelementptr inbounds float, ptr %63, i64 %65
  %67 = load float, ptr %66, align 4, !tbaa !23
  %68 = fmul nsz float %62, %67
  %69 = call i64 @llvm.lrint.i64.f32(float %68)
  %70 = trunc i64 %69 to i32
  %71 = load ptr, ptr %6, align 8, !tbaa !25
  %72 = load i32, ptr %9, align 4, !tbaa !10
  %73 = sext i32 %72 to i64
  %74 = getelementptr inbounds i32, ptr %71, i64 %73
  store i32 %70, ptr %74, align 4, !tbaa !10
  %75 = load ptr, ptr %6, align 8, !tbaa !25
  %76 = load i32, ptr %9, align 4, !tbaa !10
  %77 = sext i32 %76 to i64
  %78 = getelementptr inbounds i32, ptr %75, i64 %77
  %79 = load i32, ptr %78, align 4, !tbaa !10
  %80 = load ptr, ptr %6, align 8, !tbaa !25
  %81 = load i32, ptr %9, align 4, !tbaa !10
  %82 = sext i32 %81 to i64
  %83 = getelementptr inbounds i32, ptr %80, i64 %82
  %84 = load i32, ptr %83, align 4, !tbaa !10
  %85 = mul nsw i32 %79, %84
  %86 = load i32, ptr %10, align 4, !tbaa !10
  %87 = add nsw i32 %86, %85
  store i32 %87, ptr %10, align 4, !tbaa !10
  %88 = load ptr, ptr %6, align 8, !tbaa !25
  %89 = load i32, ptr %9, align 4, !tbaa !10
  %90 = sext i32 %89 to i64
  %91 = getelementptr inbounds i32, ptr %88, i64 %90
  %92 = load i32, ptr %91, align 4, !tbaa !10
  %93 = sitofp i32 %92 to float
  %94 = load ptr, ptr %5, align 8, !tbaa !21
  %95 = load i32, ptr %9, align 4, !tbaa !10
  %96 = sext i32 %95 to i64
  %97 = getelementptr inbounds float, ptr %94, i64 %96
  %98 = load float, ptr %97, align 4, !tbaa !23
  %99 = load float, ptr %12, align 4, !tbaa !23
  %100 = call nsz float @llvm.fmuladd.f32(float %93, float %98, float %99)
  store float %100, ptr %12, align 4, !tbaa !23
  %101 = load ptr, ptr %6, align 8, !tbaa !25
  %102 = load i32, ptr %9, align 4, !tbaa !10
  %103 = sext i32 %102 to i64
  %104 = getelementptr inbounds i32, ptr %101, i64 %103
  %105 = load i32, ptr %104, align 4, !tbaa !10
  %106 = icmp sge i32 %105, 0
  br i1 %106, label %107, label %113

107:                                              ; preds = %61
  %108 = load ptr, ptr %6, align 8, !tbaa !25
  %109 = load i32, ptr %9, align 4, !tbaa !10
  %110 = sext i32 %109 to i64
  %111 = getelementptr inbounds i32, ptr %108, i64 %110
  %112 = load i32, ptr %111, align 4, !tbaa !10
  br label %120

113:                                              ; preds = %61
  %114 = load ptr, ptr %6, align 8, !tbaa !25
  %115 = load i32, ptr %9, align 4, !tbaa !10
  %116 = sext i32 %115 to i64
  %117 = getelementptr inbounds i32, ptr %114, i64 %116
  %118 = load i32, ptr %117, align 4, !tbaa !10
  %119 = sub nsw i32 0, %118
  br label %120

120:                                              ; preds = %113, %107
  %121 = phi i32 [ %112, %107 ], [ %119, %113 ]
  %122 = load i32, ptr %7, align 4, !tbaa !10
  %123 = sub nsw i32 %122, %121
  store i32 %123, ptr %7, align 4, !tbaa !10
  br label %124

124:                                              ; preds = %120
  %125 = load i32, ptr %9, align 4, !tbaa !10
  %126 = add nsw i32 %125, 1
  store i32 %126, ptr %9, align 4, !tbaa !10
  br label %57, !llvm.loop !29

127:                                              ; preds = %57
  br label %128

128:                                              ; preds = %231, %127
  %129 = load i32, ptr %7, align 4, !tbaa !10
  %130 = icmp ne i32 %129, 0
  br i1 %130, label %131, label %271

131:                                              ; preds = %128
  call void @llvm.lifetime.start.p0(i64 4, ptr %13) #10
  store i32 0, ptr %13, align 4, !tbaa !10
  call void @llvm.lifetime.start.p0(i64 4, ptr %14) #10
  %132 = load i32, ptr %7, align 4, !tbaa !10
  %133 = icmp sgt i32 %132, 0
  %134 = select i1 %133, i32 1, i32 -1
  store i32 %134, ptr %14, align 4, !tbaa !10
  call void @llvm.lifetime.start.p0(i64 4, ptr %15) #10
  store float 0.000000e+00, ptr %15, align 4, !tbaa !23
  call void @llvm.lifetime.start.p0(i64 4, ptr %16) #10
  store float 1.000000e+00, ptr %16, align 4, !tbaa !23
  %135 = load i32, ptr %10, align 4, !tbaa !10
  %136 = sitofp i32 %135 to float
  %137 = fadd nsz float %136, 1.000000e+00
  %138 = fptosi float %137 to i32
  store i32 %138, ptr %10, align 4, !tbaa !10
  store i32 0, ptr %9, align 4, !tbaa !10
  br label %139

139:                                              ; preds = %228, %131
  %140 = load i32, ptr %9, align 4, !tbaa !10
  %141 = load i32, ptr %8, align 4, !tbaa !10
  %142 = icmp slt i32 %140, %141
  br i1 %142, label %143, label %231

143:                                              ; preds = %139
  call void @llvm.lifetime.start.p0(i64 4, ptr %17) #10
  %144 = load ptr, ptr %6, align 8, !tbaa !25
  %145 = load i32, ptr %9, align 4, !tbaa !10
  %146 = sext i32 %145 to i64
  %147 = getelementptr inbounds i32, ptr %144, i64 %146
  %148 = load i32, ptr %147, align 4, !tbaa !10
  %149 = icmp eq i32 %148, 0
  %150 = zext i1 %149 to i32
  %151 = load i32, ptr %14, align 4, !tbaa !10
  %152 = icmp slt i32 %151, 0
  %153 = zext i1 %152 to i32
  %154 = and i32 %150, %153
  %155 = xor i32 1, %154
  store i32 %155, ptr %17, align 4, !tbaa !10
  call void @llvm.lifetime.start.p0(i64 4, ptr %18) #10
  %156 = load i32, ptr %10, align 4, !tbaa !10
  %157 = load i32, ptr %14, align 4, !tbaa !10
  %158 = mul nsw i32 2, %157
  %159 = load ptr, ptr %6, align 8, !tbaa !25
  %160 = load i32, ptr %9, align 4, !tbaa !10
  %161 = sext i32 %160 to i64
  %162 = getelementptr inbounds i32, ptr %159, i64 %161
  %163 = load i32, ptr %162, align 4, !tbaa !10
  %164 = icmp sge i32 %163, 0
  br i1 %164, label %165, label %171

165:                                              ; preds = %143
  %166 = load ptr, ptr %6, align 8, !tbaa !25
  %167 = load i32, ptr %9, align 4, !tbaa !10
  %168 = sext i32 %167 to i64
  %169 = getelementptr inbounds i32, ptr %166, i64 %168
  %170 = load i32, ptr %169, align 4, !tbaa !10
  br label %178

171:                                              ; preds = %143
  %172 = load ptr, ptr %6, align 8, !tbaa !25
  %173 = load i32, ptr %9, align 4, !tbaa !10
  %174 = sext i32 %173 to i64
  %175 = getelementptr inbounds i32, ptr %172, i64 %174
  %176 = load i32, ptr %175, align 4, !tbaa !10
  %177 = sub nsw i32 0, %176
  br label %178

178:                                              ; preds = %171, %165
  %179 = phi i32 [ %170, %165 ], [ %177, %171 ]
  %180 = mul nsw i32 %158, %179
  %181 = add nsw i32 %156, %180
  store i32 %181, ptr %18, align 4, !tbaa !10
  call void @llvm.lifetime.start.p0(i64 4, ptr %19) #10
  %182 = load float, ptr %12, align 4, !tbaa !23
  %183 = load i32, ptr %14, align 4, !tbaa !10
  %184 = mul nsw i32 1, %183
  %185 = sitofp i32 %184 to float
  %186 = load ptr, ptr %5, align 8, !tbaa !21
  %187 = load i32, ptr %9, align 4, !tbaa !10
  %188 = sext i32 %187 to i64
  %189 = getelementptr inbounds float, ptr %186, i64 %188
  %190 = load float, ptr %189, align 4, !tbaa !23
  %191 = fcmp nsz oge float %190, 0.000000e+00
  br i1 %191, label %192, label %198

192:                                              ; preds = %178
  %193 = load ptr, ptr %5, align 8, !tbaa !21
  %194 = load i32, ptr %9, align 4, !tbaa !10
  %195 = sext i32 %194 to i64
  %196 = getelementptr inbounds float, ptr %193, i64 %195
  %197 = load float, ptr %196, align 4, !tbaa !23
  br label %205

198:                                              ; preds = %178
  %199 = load ptr, ptr %5, align 8, !tbaa !21
  %200 = load i32, ptr %9, align 4, !tbaa !10
  %201 = sext i32 %200 to i64
  %202 = getelementptr inbounds float, ptr %199, i64 %201
  %203 = load float, ptr %202, align 4, !tbaa !23
  %204 = fneg nsz float %203
  br label %205

205:                                              ; preds = %198, %192
  %206 = phi nsz float [ %197, %192 ], [ %204, %198 ]
  %207 = call nsz float @llvm.fmuladd.f32(float %185, float %206, float %182)
  store float %207, ptr %19, align 4, !tbaa !23
  %208 = load float, ptr %19, align 4, !tbaa !23
  %209 = load float, ptr %19, align 4, !tbaa !23
  %210 = fmul nsz float %208, %209
  store float %210, ptr %19, align 4, !tbaa !23
  %211 = load i32, ptr %17, align 4, !tbaa !10
  %212 = icmp ne i32 %211, 0
  br i1 %212, label %213, label %227

213:                                              ; preds = %205
  %214 = load float, ptr %16, align 4, !tbaa !23
  %215 = load float, ptr %19, align 4, !tbaa !23
  %216 = fmul nsz float %214, %215
  %217 = load i32, ptr %18, align 4, !tbaa !10
  %218 = sitofp i32 %217 to float
  %219 = load float, ptr %15, align 4, !tbaa !23
  %220 = fmul nsz float %218, %219
  %221 = fcmp nsz ogt float %216, %220
  br i1 %221, label %222, label %227

222:                                              ; preds = %213
  %223 = load i32, ptr %18, align 4, !tbaa !10
  %224 = sitofp i32 %223 to float
  store float %224, ptr %16, align 4, !tbaa !23
  %225 = load float, ptr %19, align 4, !tbaa !23
  store float %225, ptr %15, align 4, !tbaa !23
  %226 = load i32, ptr %9, align 4, !tbaa !10
  store i32 %226, ptr %13, align 4, !tbaa !10
  br label %227

227:                                              ; preds = %222, %213, %205
  call void @llvm.lifetime.end.p0(i64 4, ptr %19) #10
  call void @llvm.lifetime.end.p0(i64 4, ptr %18) #10
  call void @llvm.lifetime.end.p0(i64 4, ptr %17) #10
  br label %228

228:                                              ; preds = %227
  %229 = load i32, ptr %9, align 4, !tbaa !10
  %230 = add nsw i32 %229, 1
  store i32 %230, ptr %9, align 4, !tbaa !10
  br label %139, !llvm.loop !30

231:                                              ; preds = %139
  %232 = load i32, ptr %14, align 4, !tbaa !10
  %233 = load i32, ptr %7, align 4, !tbaa !10
  %234 = sub nsw i32 %233, %232
  store i32 %234, ptr %7, align 4, !tbaa !10
  %235 = load ptr, ptr %5, align 8, !tbaa !21
  %236 = load i32, ptr %13, align 4, !tbaa !10
  %237 = sext i32 %236 to i64
  %238 = getelementptr inbounds float, ptr %235, i64 %237
  %239 = load float, ptr %238, align 4, !tbaa !23
  %240 = fcmp nsz ogt float %239, 0.000000e+00
  %241 = select i1 %240, i32 1, i32 -1
  %242 = load i32, ptr %14, align 4, !tbaa !10
  %243 = mul nsw i32 %242, %241
  store i32 %243, ptr %14, align 4, !tbaa !10
  %244 = load i32, ptr %14, align 4, !tbaa !10
  %245 = mul nsw i32 1, %244
  %246 = sitofp i32 %245 to float
  %247 = load ptr, ptr %5, align 8, !tbaa !21
  %248 = load i32, ptr %13, align 4, !tbaa !10
  %249 = sext i32 %248 to i64
  %250 = getelementptr inbounds float, ptr %247, i64 %249
  %251 = load float, ptr %250, align 4, !tbaa !23
  %252 = load float, ptr %12, align 4, !tbaa !23
  %253 = call nsz float @llvm.fmuladd.f32(float %246, float %251, float %252)
  store float %253, ptr %12, align 4, !tbaa !23
  %254 = load i32, ptr %14, align 4, !tbaa !10
  %255 = mul nsw i32 2, %254
  %256 = load ptr, ptr %6, align 8, !tbaa !25
  %257 = load i32, ptr %13, align 4, !tbaa !10
  %258 = sext i32 %257 to i64
  %259 = getelementptr inbounds i32, ptr %256, i64 %258
  %260 = load i32, ptr %259, align 4, !tbaa !10
  %261 = mul nsw i32 %255, %260
  %262 = load i32, ptr %10, align 4, !tbaa !10
  %263 = add nsw i32 %262, %261
  store i32 %263, ptr %10, align 4, !tbaa !10
  %264 = load i32, ptr %14, align 4, !tbaa !10
  %265 = load ptr, ptr %6, align 8, !tbaa !25
  %266 = load i32, ptr %13, align 4, !tbaa !10
  %267 = sext i32 %266 to i64
  %268 = getelementptr inbounds i32, ptr %265, i64 %267
  %269 = load i32, ptr %268, align 4, !tbaa !10
  %270 = add nsw i32 %269, %264
  store i32 %270, ptr %268, align 4, !tbaa !10
  call void @llvm.lifetime.end.p0(i64 4, ptr %16) #10
  call void @llvm.lifetime.end.p0(i64 4, ptr %15) #10
  call void @llvm.lifetime.end.p0(i64 4, ptr %14) #10
  call void @llvm.lifetime.end.p0(i64 4, ptr %13) #10
  br label %128, !llvm.loop !31

271:                                              ; preds = %128
  %272 = load i32, ptr %10, align 4, !tbaa !10
  %273 = sitofp i32 %272 to float
  call void @llvm.lifetime.end.p0(i64 4, ptr %12) #10
  call void @llvm.lifetime.end.p0(i64 4, ptr %11) #10
  call void @llvm.lifetime.end.p0(i64 4, ptr %10) #10
  call void @llvm.lifetime.end.p0(i64 4, ptr %9) #10
  ret float %273
}